Certificate:
    Data:
        Version: 3 (0x2)
        Serial Number:
            ac:a7:09:e0:05:df:ea:27:92:50:a2:ab:04:eb:99:cc
        Signature Algorithm: sha256WithRSAEncryption
        Issuer: CN=1794326
        Validity
            Not Before: Dec 21 12:18:25 2024 GMT
            Not After : Dec  6 12:18:25 2027 GMT
        Subject: CN=vpn_server
        Subject Public Key Info:
            Public Key Algorithm: rsaEncryption
                RSA Public-Key: (2048 bit)
                Modulus:
                    00:e3:eb:0f:4a:79:2c:f2:47:d5:ca:8a:42:72:61:
                    a2:c2:a3:fd:dd:f0:fd:0f:5b:2a:23:8d:43:4f:dc:
                    c4:a6:ae:64:bc:09:36:be:90:7e:4c:17:01:d5:e4:
                    d6:34:8a:a4:bd:fc:c2:bd:03:0d:02:da:b2:d2:18:
                    77:a7:29:5a:02:94:c9:c4:e8:f1:01:b9:8e:82:32:
                    14:2d:27:41:9a:fe:5e:65:38:35:d4:16:bd:2c:2e:
                    39:bc:e4:86:52:3c:53:53:3c:6b:30:ad:3b:b3:c4:
                    05:4b:bf:8e:15:c4:b2:2e:d6:81:f8:37:e8:ac:e8:
                    e8:63:a8:e5:c4:85:03:d2:99:12:2b:e5:d2:3b:9d:
                    9b:6b:99:07:e4:e8:92:e1:5b:22:94:fc:4c:9a:e5:
                    fa:8c:28:c3:39:72:db:a8:5f:64:bc:15:2f:2c:d3:
                    5f:64:b8:28:a1:68:62:c2:f3:ee:f8:5f:75:13:1c:
                    c2:db:b3:29:6c:e0:d1:15:29:d6:94:31:67:ea:35:
                    01:72:f3:2f:49:42:5c:21:a5:7a:35:2c:18:58:39:
                    93:1e:b8:40:78:fb:4b:64:11:c3:a1:81:15:20:43:
                    88:b5:2f:d1:0a:c3:18:cd:ad:36:17:6f:29:aa:b3:
                    9b:26:b5:e7:58:8a:20:90:73:62:b8:1a:b4:7d:e4:
                    7e:9b
                Exponent: 65537 (0x10001)
        X509v3 extensions:
            X509v3 Basic Constraints: 
                CA:FALSE
            X509v3 Subject Key Identifier: 
                16:FE:8F:93:30:98:5D:27:34:49:A8:31:C9:1E:9D:B3:2D:26:FC:63
            X509v3 Authority Key Identifier: 
                keyid:BB:69:37:00:49:57:38:64:EF:01:E4:CA:D6:0B:E0:AD:32:5A:B6:B0
                DirName:/CN=1794326
                serial:0D:05:F6:DC:CE:9F:BC:DB:9A:9A:19:3B:07:59:CD:F6:43:25:18:1C

            X509v3 Extended Key Usage: 
                TLS Web Server Authentication
            X509v3 Key Usage: 
                Digital Signature, Key Encipherment
            X509v3 Subject Alternative Name: 
                DNS:vpn_server
    Signature Algorithm: sha256WithRSAEncryption
         46:6c:d7:f4:5f:cc:4d:82:a6:f8:cb:05:94:83:4c:43:8d:dc:
         ad:bf:c7:c0:21:44:e1:be:0a:d2:0f:9a:90:a7:ff:08:93:9b:
         17:35:34:43:ae:60:8d:04:2c:0b:36:b7:f7:6e:56:51:2e:e0:
         45:ff:cc:6d:de:97:8e:bd:c5:37:07:26:ef:3f:74:e3:47:ea:
         c5:c0:8d:08:1c:42:27:66:3d:b5:39:4c:a3:c5:c9:b3:ed:7e:
         5d:0c:ed:1b:32:d4:0c:44:b9:6d:52:91:04:f0:79:fe:8f:51:
         90:49:b3:4a:00:a0:68:4f:4c:50:f0:04:af:3f:96:9a:d8:04:
         73:c5:40:15:08:70:5d:5c:42:9d:2a:5d:93:56:4c:2f:8c:4c:
         bf:97:3c:e9:37:26:93:c5:67:50:9e:95:53:cd:3b:b9:d4:86:
         25:38:7b:ca:8f:f5:66:ca:94:be:73:ef:b9:81:10:c3:a6:7b:
         b3:98:81:38:6d:28:6a:57:c0:b5:b3:50:a1:11:2d:2f:58:c5:
         83:8f:12:83:ec:c6:3b:9e:78:c5:bf:6f:9e:7e:c7:5a:a9:d0:
         b3:74:07:8c:8a:3a:d8:80:63:68:d7:98:92:40:84:d5:d6:c2:
         99:f2:6e:bc:30:8d:f2:21:62:e1:0e:9f:bd:a4:bc:c9:07:a0:
         ce:80:7f:92
-----BEGIN CERTIFICATE-----
MIIDaDCCAlCgAwIBAgIRAKynCeAF3+onklCiqwTrmcwwDQYJKoZIhvcNAQELBQAw
EjEQMA4GA1UEAwwHMTc5NDMyNjAeFw0yNDEyMjExMjE4MjVaFw0yNzEyMDYxMjE4
MjVaMBUxEzARBgNVBAMMCnZwbl9zZXJ2ZXIwggEiMA0GCSqGSIb3DQEBAQUAA4IB
DwAwggEKAoIBAQDj6w9KeSzyR9XKikJyYaLCo/3d8P0PWyojjUNP3MSmrmS8CTa+
kH5MFwHV5NY0iqS9/MK9Aw0C2rLSGHenKVoClMnE6PEBuY6CMhQtJ0Ga/l5lODXU
Fr0sLjm85IZSPFNTPGswrTuzxAVLv44VxLIu1oH4N+is6OhjqOXEhQPSmRIr5dI7
nZtrmQfk6JLhWyKU/Eya5fqMKMM5ctuoX2S8FS8s019kuCihaGLC8+74X3UTHMLb
syls4NEVKdaUMWfqNQFy8y9JQlwhpXo1LBhYOZMeuEB4+0tkEcOhgRUgQ4i1L9EK
wxjNrTYXbymqs5smtedYiiCQc2K4GrR95H6bAgMBAAGjgbUwgbIwCQYDVR0TBAIw
ADAdBgNVHQ4EFgQUFv6PkzCYXSc0SagxyR6dsy0m/GMwTQYDVR0jBEYwRIAUu2k3
AElXOGTvAeTK1gvgrTJatrChFqQUMBIxEDAOBgNVBAMMBzE3OTQzMjaCFA0F9tzO
n7zbmpoZOwdZzfZDJRgcMBMGA1UdJQQMMAoGCCsGAQUFBwMBMAsGA1UdDwQEAwIF
oDAVBgNVHREEDjAMggp2cG5fc2VydmVyMA0GCSqGSIb3DQEBCwUAA4IBAQBGbNf0
X8xNgqb4ywWUg0xDjdytv8fAIUThvgrSD5qQp/8Ik5sXNTRDrmCNBCwLNrf3blZR
LuBF/8xt3peOvcU3BybvP3TjR+rFwI0IHEInZj21OUyjxcmz7X5dDO0bMtQMRLlt
UpEE8Hn+j1GQSbNKAKBoT0xQ8ASvP5aa2ARzxUAVCHBdXEKdKl2TVkwvjEy/lzzp
NyaTxWdQnpVTzTu51IYlOHvKj/VmypS+c++5gRDDpnuzmIE4bShqV8C1s1ChES0v
WMWDjxKD7MY7nnjFv2+efsdaqdCzdAeMijrYgGNo15iSQITV1sKZ8m68MI3yIWLh
Dp+9pLzJB6DOgH+S
-----END CERTIFICATE-----
