Certificate:
    Data:
        Version: 3 (0x2)
        Serial Number:
            07:d3:7e:56:4d:89:05:9d:64:f1:d7:09:df:b0:ee:89
        Signature Algorithm: sha256WithRSAEncryption
        Issuer: CN=1794326
        Validity
            Not Before: Dec 21 12:19:01 2024 GMT
            Not After : Dec  6 12:19:01 2027 GMT
        Subject: CN=client_2
        Subject Public Key Info:
            Public Key Algorithm: rsaEncryption
                RSA Public-Key: (2048 bit)
                Modulus:
                    00:f1:8e:d6:7d:12:3f:2e:48:dd:42:d4:3f:60:04:
                    61:61:65:b5:bf:b9:5c:1f:4a:5c:33:73:36:5f:56:
                    d1:21:98:0f:44:13:3d:8a:f9:a5:e2:e9:74:61:7b:
                    71:ec:0f:e4:7a:cb:d1:63:2d:52:51:2e:1b:ac:4e:
                    89:be:18:e3:fd:37:12:c9:c4:00:ee:12:0d:6f:55:
                    ff:85:15:ee:92:fd:1b:a1:ba:d6:2d:fa:f0:35:6d:
                    7d:81:91:e7:1f:a5:3e:98:41:d8:d9:ab:96:88:8c:
                    56:02:e6:f4:d8:1f:4b:f4:1c:68:bb:83:50:a3:76:
                    83:c9:da:ef:b6:8e:65:2a:43:d1:72:e4:31:66:7f:
                    d3:63:78:f7:89:d3:6f:6b:70:5d:bf:8e:ae:b7:9a:
                    4b:23:d0:4a:a7:10:39:94:3d:15:95:53:12:91:2f:
                    45:ef:5e:6b:56:32:97:5f:55:d6:ed:c1:7f:c5:35:
                    9f:d4:8b:37:8b:ec:fd:75:1b:ba:d5:fe:e2:9a:b8:
                    41:15:24:6b:ef:31:a2:58:31:5e:2c:15:53:4e:06:
                    6f:44:15:fd:ca:7e:20:32:08:53:27:6e:1f:92:d2:
                    8c:5b:9e:b7:4c:66:ec:cd:e3:4e:de:28:a2:9d:fb:
                    9a:52:df:de:99:eb:a6:7e:d6:c7:06:61:f9:30:eb:
                    e8:bf
                Exponent: 65537 (0x10001)
        X509v3 extensions:
            X509v3 Basic Constraints: 
                CA:FALSE
            X509v3 Subject Key Identifier: 
                94:22:DF:02:A6:15:A1:85:65:F7:E8:DA:32:AB:73:C1:65:19:46:8B
            X509v3 Authority Key Identifier: 
                keyid:BB:69:37:00:49:57:38:64:EF:01:E4:CA:D6:0B:E0:AD:32:5A:B6:B0
                DirName:/CN=1794326
                serial:0D:05:F6:DC:CE:9F:BC:DB:9A:9A:19:3B:07:59:CD:F6:43:25:18:1C

            X509v3 Extended Key Usage: 
                TLS Web Client Authentication
            X509v3 Key Usage: 
                Digital Signature
    Signature Algorithm: sha256WithRSAEncryption
         70:26:2d:36:15:3f:0f:ce:22:b6:95:84:51:c2:87:4c:90:23:
         ac:cb:46:00:6d:be:a6:ee:05:f7:40:9b:b1:62:66:f8:fb:15:
         31:7d:38:7f:41:7d:84:7c:f5:72:d9:62:e4:0f:4c:eb:31:95:
         e5:15:d3:1f:1a:55:c8:bb:62:f4:62:4e:03:31:ef:1c:93:52:
         ff:03:cd:14:4d:f2:bf:bc:a9:ab:79:1e:12:88:f3:52:99:8d:
         8e:b8:ae:a4:ed:14:0a:99:8f:d9:22:32:52:ca:9f:fc:ee:e9:
         ac:5d:1d:ff:00:c3:6a:ea:26:3d:80:2c:e7:db:7f:50:d4:9f:
         c7:7c:ae:1a:a0:cf:4c:27:80:98:88:98:38:bf:19:5e:a8:74:
         f6:e4:02:9b:fd:b6:c3:22:fc:77:d3:44:1e:d6:56:b0:33:1b:
         2e:15:a0:3b:09:32:4b:69:8f:78:bc:73:d3:e0:a5:5e:a0:03:
         a6:67:78:c7:ef:3e:93:8d:ac:0b:ee:43:52:23:7e:d0:89:9e:
         e5:4a:c3:e6:56:7e:06:33:c9:de:1b:c7:cb:c4:a2:a6:80:69:
         d5:13:af:31:36:ce:02:99:70:27:e7:fe:5e:d1:39:54:ae:9d:
         66:21:5b:a2:06:1f:d0:85:23:a2:cb:d2:2f:a5:f4:3f:0d:60:
         1d:36:3d:89
-----BEGIN CERTIFICATE-----
MIIDTjCCAjagAwIBAgIQB9N+Vk2JBZ1k8dcJ37DuiTANBgkqhkiG9w0BAQsFADAS
MRAwDgYDVQQDDAcxNzk0MzI2MB4XDTI0MTIyMTEyMTkwMVoXDTI3MTIwNjEyMTkw
MVowEzERMA8GA1UEAwwIY2xpZW50XzIwggEiMA0GCSqGSIb3DQEBAQUAA4IBDwAw
ggEKAoIBAQDxjtZ9Ej8uSN1C1D9gBGFhZbW/uVwfSlwzczZfVtEhmA9EEz2K+aXi
6XRhe3HsD+R6y9FjLVJRLhusTom+GOP9NxLJxADuEg1vVf+FFe6S/RuhutYt+vA1
bX2BkecfpT6YQdjZq5aIjFYC5vTYH0v0HGi7g1CjdoPJ2u+2jmUqQ9Fy5DFmf9Nj
ePeJ029rcF2/jq63mksj0EqnEDmUPRWVUxKRL0XvXmtWMpdfVdbtwX/FNZ/UizeL
7P11G7rV/uKauEEVJGvvMaJYMV4sFVNOBm9EFf3KfiAyCFMnbh+S0oxbnrdMZuzN
407eKKKd+5pS396Z66Z+1scGYfkw6+i/AgMBAAGjgZ4wgZswCQYDVR0TBAIwADAd
BgNVHQ4EFgQUlCLfAqYVoYVl9+jaMqtzwWUZRoswTQYDVR0jBEYwRIAUu2k3AElX
OGTvAeTK1gvgrTJatrChFqQUMBIxEDAOBgNVBAMMBzE3OTQzMjaCFA0F9tzOn7zb
mpoZOwdZzfZDJRgcMBMGA1UdJQQMMAoGCCsGAQUFBwMCMAsGA1UdDwQEAwIHgDAN
BgkqhkiG9w0BAQsFAAOCAQEAcCYtNhU/D84itpWEUcKHTJAjrMtGAG2+pu4F90Cb
sWJm+PsVMX04f0F9hHz1ctli5A9M6zGV5RXTHxpVyLti9GJOAzHvHJNS/wPNFE3y
v7ypq3keEojzUpmNjriupO0UCpmP2SIyUsqf/O7prF0d/wDDauomPYAs59t/UNSf
x3yuGqDPTCeAmIiYOL8ZXqh09uQCm/22wyL8d9NEHtZWsDMbLhWgOwkyS2mPeLxz
0+ClXqADpmd4x+8+k42sC+5DUiN+0Ime5UrD5lZ+BjPJ3hvHy8SipoBp1ROvMTbO
AplwJ+f+XtE5VK6dZiFbogYf0IUjosvSL6X0Pw1gHTY9iQ==
-----END CERTIFICATE-----
