Certificate:
    Data:
        Version: 3 (0x2)
        Serial Number:
            ce:c7:6c:6a:54:67:77:72:40:a2:93:dc:fe:73:c5:2d
        Signature Algorithm: sha256WithRSAEncryption
        Issuer: CN=1890039
        Validity
            Not Before: Dec 18 22:51:27 2024 GMT
            Not After : Dec  3 22:51:27 2027 GMT
        Subject: CN=client_2
        Subject Public Key Info:
            Public Key Algorithm: rsaEncryption
                RSA Public-Key: (2048 bit)
                Modulus:
                    00:c9:8d:71:e2:3d:7f:3b:95:69:23:44:d8:a7:35:
                    ed:93:3a:51:6a:24:f0:4d:9a:4b:11:60:93:1d:71:
                    88:e3:9b:a3:a1:9c:6c:95:1b:92:3c:9a:3f:4e:7b:
                    fe:ac:69:6c:17:d9:6b:5c:ba:1b:cd:8e:f6:fc:d1:
                    6f:36:28:63:82:7e:3f:31:03:b4:c3:04:72:c9:31:
                    10:de:8e:07:e7:d4:b6:1c:13:65:bf:e4:68:76:02:
                    59:3c:92:f8:c4:d9:07:a7:ea:17:9a:69:8b:66:21:
                    e6:fb:0b:85:9e:4b:5f:48:53:1d:c2:e2:93:b4:2d:
                    e4:4b:50:85:1b:59:f0:21:25:bf:f3:64:10:0e:22:
                    aa:c5:0d:4f:58:42:a4:a7:f7:eb:96:e0:8a:3d:3a:
                    67:86:4e:2a:98:e7:c9:4d:3c:b6:25:de:93:64:6d:
                    9a:f6:88:98:ce:c2:03:c8:a9:57:5a:6e:db:c1:4d:
                    94:dd:ba:06:94:2e:00:83:fb:33:50:89:c6:b9:eb:
                    c8:10:62:66:e8:65:f6:cc:85:db:b1:8d:b0:d6:a5:
                    f4:79:41:58:0f:34:9a:fb:ee:8d:b8:e2:8f:bf:41:
                    be:ab:f5:e0:1a:b1:5b:08:18:41:dc:fb:37:51:0a:
                    f0:d9:da:6d:94:62:7e:af:80:b9:f3:92:b6:dd:fb:
                    66:f7
                Exponent: 65537 (0x10001)
        X509v3 extensions:
            X509v3 Basic Constraints: 
                CA:FALSE
            X509v3 Subject Key Identifier: 
                6B:02:7C:73:63:D7:EE:A6:64:F5:B5:83:52:DE:98:11:9D:B1:DC:59
            X509v3 Authority Key Identifier: 
                keyid:C2:3F:4B:8A:BF:E5:CA:57:E2:AC:47:E5:8E:06:A8:52:61:A6:C6:A9
                DirName:/CN=1890039
                serial:68:6A:A3:93:C5:8D:6A:C6:DA:91:9F:EF:D6:60:05:51:4D:ED:64:0F

            X509v3 Extended Key Usage: 
                TLS Web Client Authentication
            X509v3 Key Usage: 
                Digital Signature
    Signature Algorithm: sha256WithRSAEncryption
         92:aa:c3:87:23:61:17:bf:89:d7:34:76:26:64:15:cb:b8:65:
         fc:39:d6:ba:3b:fd:99:ae:eb:1c:b0:32:1a:18:7c:42:91:b1:
         ef:3f:39:d9:c8:f9:15:02:3c:7b:86:c4:93:95:2e:28:d8:ab:
         34:59:97:46:c0:fe:d8:09:14:c6:88:e9:3b:f8:a2:f9:5b:63:
         c3:9f:2f:86:a9:dd:a5:c5:1b:7c:01:98:ba:3b:83:9a:f7:f6:
         ae:15:49:71:e2:0d:71:59:0e:e4:74:31:23:b9:4f:47:91:6d:
         f7:76:27:c6:f1:cc:fd:3a:ab:73:ca:2a:e5:e1:af:e1:ec:32:
         7f:94:78:d1:83:5e:46:99:c9:33:a0:f4:a9:6e:b7:61:92:80:
         03:5d:51:9c:37:da:91:f0:43:dd:d7:92:04:29:f1:0a:59:86:
         98:2d:b3:18:89:f8:f0:20:e8:86:8f:c1:c4:2f:ad:ea:0f:2b:
         43:4e:c4:a4:81:93:14:0f:f7:e4:0e:cd:fd:9b:0c:de:e5:45:
         69:5f:10:ed:f1:92:5b:0a:9e:5f:3d:e9:3f:e2:37:21:84:87:
         1b:bd:c1:4b:e6:4e:3f:a6:04:22:36:25:e4:ba:f2:9f:9a:c6:
         7a:88:d8:d1:18:be:9b:b5:2d:10:90:c5:08:c3:a0:dc:e5:09:
         0b:a4:6d:2d
-----BEGIN CERTIFICATE-----
MIIDTzCCAjegAwIBAgIRAM7HbGpUZ3dyQKKT3P5zxS0wDQYJKoZIhvcNAQELBQAw
EjEQMA4GA1UEAwwHMTg5MDAzOTAeFw0yNDEyMTgyMjUxMjdaFw0yNzEyMDMyMjUx
MjdaMBMxETAPBgNVBAMMCGNsaWVudF8yMIIBIjANBgkqhkiG9w0BAQEFAAOCAQ8A
MIIBCgKCAQEAyY1x4j1/O5VpI0TYpzXtkzpRaiTwTZpLEWCTHXGI45ujoZxslRuS
PJo/Tnv+rGlsF9lrXLobzY72/NFvNihjgn4/MQO0wwRyyTEQ3o4H59S2HBNlv+Ro
dgJZPJL4xNkHp+oXmmmLZiHm+wuFnktfSFMdwuKTtC3kS1CFG1nwISW/82QQDiKq
xQ1PWEKkp/frluCKPTpnhk4qmOfJTTy2Jd6TZG2a9oiYzsIDyKlXWm7bwU2U3boG
lC4Ag/szUInGuevIEGJm6GX2zIXbsY2w1qX0eUFYDzSa++6NuOKPv0G+q/XgGrFb
CBhB3Ps3UQrw2dptlGJ+r4C585K23ftm9wIDAQABo4GeMIGbMAkGA1UdEwQCMAAw
HQYDVR0OBBYEFGsCfHNj1+6mZPW1g1LemBGdsdxZME0GA1UdIwRGMESAFMI/S4q/
5cpX4qxH5Y4GqFJhpsapoRakFDASMRAwDgYDVQQDDAcxODkwMDM5ghRoaqOTxY1q
xtqRn+/WYAVRTe1kDzATBgNVHSUEDDAKBggrBgEFBQcDAjALBgNVHQ8EBAMCB4Aw
DQYJKoZIhvcNAQELBQADggEBAJKqw4cjYRe/idc0diZkFcu4Zfw51ro7/Zmu6xyw
MhoYfEKRse8/OdnI+RUCPHuGxJOVLijYqzRZl0bA/tgJFMaI6Tv4ovlbY8OfL4ap
3aXFG3wBmLo7g5r39q4VSXHiDXFZDuR0MSO5T0eRbfd2J8bxzP06q3PKKuXhr+Hs
Mn+UeNGDXkaZyTOg9Klut2GSgANdUZw32pHwQ93XkgQp8QpZhpgtsxiJ+PAg6IaP
wcQvreoPK0NOxKSBkxQP9+QOzf2bDN7lRWlfEO3xklsKnl896T/iNyGEhxu9wUvm
Tj+mBCI2JeS68p+axnqI2NEYvpu1LRCQxQjDoNzlCQukbS0=
-----END CERTIFICATE-----
