Certificate:
    Data:
        Version: 3 (0x2)
        Serial Number:
            0b:77:57:84:e7:9a:fa:f1:51:fe:3e:a5:9f:21:82:25
        Signature Algorithm: sha256WithRSAEncryption
        Issuer: CN=CA
        Validity
            Not Before: Dec 11 07:58:10 2024 GMT
            Not After : Nov 26 07:58:10 2027 GMT
        Subject: CN=pc2
        Subject Public Key Info:
            Public Key Algorithm: rsaEncryption
                RSA Public-Key: (2048 bit)
                Modulus:
                    00:c0:59:85:3c:7a:45:d6:af:8a:1b:85:73:96:09:
                    a1:f4:74:56:18:32:26:b4:e7:5c:0f:75:c8:c1:4c:
                    35:c9:80:ab:32:3b:09:e6:26:17:35:f6:44:4b:3a:
                    24:b9:dd:b8:33:18:3c:92:15:fb:13:21:80:ee:9a:
                    61:81:5a:f6:8f:34:e0:be:6b:98:b3:68:11:39:fd:
                    cb:32:77:fa:5f:fb:89:25:1d:43:18:13:16:bc:00:
                    ed:17:27:11:20:6d:1c:20:cb:54:02:42:ed:69:78:
                    a6:7b:44:ba:99:59:77:0b:7e:7a:9c:ac:4f:77:c7:
                    a9:b7:ff:2f:ed:6e:5c:8f:35:7b:77:50:fc:c4:09:
                    a2:be:c8:6c:03:19:7c:97:88:82:09:f1:a2:2d:14:
                    a2:41:7c:ea:30:58:f9:6f:ec:21:77:22:0d:03:ae:
                    a8:22:e0:b5:49:d3:13:ab:36:b9:fd:96:96:3a:40:
                    c9:d7:cf:09:a7:84:80:3a:15:81:d1:3d:f2:ce:b0:
                    c2:62:3b:9e:5a:25:da:75:02:55:3d:1c:4f:ef:d0:
                    71:65:78:77:b3:82:67:1a:4a:74:a6:ce:c5:76:45:
                    07:81:32:85:2b:c0:22:16:d0:af:44:d0:a1:99:a6:
                    f5:bb:bc:08:a8:d1:fd:04:7c:c8:a2:fc:8a:33:c5:
                    7b:5f
                Exponent: 65537 (0x10001)
        X509v3 extensions:
            X509v3 Basic Constraints: 
                CA:FALSE
            X509v3 Subject Key Identifier: 
                B4:8F:22:6F:E4:5B:EF:8D:7E:C8:B9:5D:34:60:2D:2C:21:0D:CE:3A
            X509v3 Authority Key Identifier: 
                keyid:6A:50:9E:8A:A5:D9:B7:09:EF:3D:B5:2D:3D:24:7D:FB:65:21:2F:49
                DirName:/CN=CA
                serial:0F:53:BC:5D:BD:20:28:E9:32:8C:13:3B:5C:75:10:77:92:75:18:E0

            X509v3 Extended Key Usage: 
                TLS Web Client Authentication
            X509v3 Key Usage: 
                Digital Signature
    Signature Algorithm: sha256WithRSAEncryption
         93:48:2f:50:7a:01:f2:8d:a9:e1:ba:ad:17:bc:6f:e0:70:a2:
         a0:30:23:ab:21:20:35:5a:e6:aa:e7:5b:44:02:e4:3b:3c:4b:
         21:71:7e:51:90:ac:bb:0d:25:05:ff:07:d6:9e:67:08:65:d1:
         8d:a3:c3:d9:d0:0e:3f:10:19:d4:cb:86:b7:a6:a4:f2:41:72:
         b7:a0:58:ac:30:f3:7d:18:43:57:24:93:c3:3c:35:5c:8b:ef:
         91:7f:f8:d5:29:20:b4:11:cc:24:b9:9e:50:60:94:44:e8:3d:
         b7:d4:f2:55:c8:4b:70:3f:6e:d3:94:aa:c8:ca:1c:f6:4c:9b:
         bc:25:7e:03:5e:c0:c9:17:10:8b:cb:cd:f7:8f:48:d0:bf:75:
         cb:28:d2:42:85:8c:44:6e:98:81:44:34:41:f6:73:f3:a1:9a:
         81:23:03:06:73:88:37:dd:00:21:05:37:22:ac:09:b4:a0:9d:
         81:aa:be:75:b8:02:da:75:65:73:ee:2e:7d:d8:ac:6e:b3:43:
         83:a0:42:a3:fc:89:05:d3:a7:9f:07:14:8e:2e:64:e5:2e:af:
         97:c2:26:9a:79:dc:03:40:88:46:ed:6b:5b:51:35:29:a0:65:
         82:43:a9:ad:ec:dd:06:0e:6b:cb:cc:e1:da:c0:4e:37:f2:77:
         89:db:6a:5a
-----BEGIN CERTIFICATE-----
MIIDPzCCAiegAwIBAgIQC3dXhOea+vFR/j6lnyGCJTANBgkqhkiG9w0BAQsFADAN
MQswCQYDVQQDDAJDQTAeFw0yNDEyMTEwNzU4MTBaFw0yNzExMjYwNzU4MTBaMA4x
DDAKBgNVBAMMA3BjMjCCASIwDQYJKoZIhvcNAQEBBQADggEPADCCAQoCggEBAMBZ
hTx6RdavihuFc5YJofR0VhgyJrTnXA91yMFMNcmAqzI7CeYmFzX2REs6JLnduDMY
PJIV+xMhgO6aYYFa9o804L5rmLNoETn9yzJ3+l/7iSUdQxgTFrwA7RcnESBtHCDL
VAJC7Wl4pntEuplZdwt+epysT3fHqbf/L+1uXI81e3dQ/MQJor7IbAMZfJeIggnx
oi0UokF86jBY+W/sIXciDQOuqCLgtUnTE6s2uf2WljpAydfPCaeEgDoVgdE98s6w
wmI7nlol2nUCVT0cT+/QcWV4d7OCZxpKdKbOxXZFB4EyhSvAIhbQr0TQoZmm9bu8
CKjR/QR8yKL8ijPFe18CAwEAAaOBmTCBljAJBgNVHRMEAjAAMB0GA1UdDgQWBBS0
jyJv5FvvjX7IuV00YC0sIQ3OOjBIBgNVHSMEQTA/gBRqUJ6Kpdm3Ce89tS09JH37
ZSEvSaERpA8wDTELMAkGA1UEAwwCQ0GCFA9TvF29ICjpMowTO1x1EHeSdRjgMBMG
A1UdJQQMMAoGCCsGAQUFBwMCMAsGA1UdDwQEAwIHgDANBgkqhkiG9w0BAQsFAAOC
AQEAk0gvUHoB8o2p4bqtF7xv4HCioDAjqyEgNVrmqudbRALkOzxLIXF+UZCsuw0l
Bf8H1p5nCGXRjaPD2dAOPxAZ1MuGt6ak8kFyt6BYrDDzfRhDVySTwzw1XIvvkX/4
1SkgtBHMJLmeUGCUROg9t9TyVchLcD9u05SqyMoc9kybvCV+A17AyRcQi8vN949I
0L91yyjSQoWMRG6YgUQ0QfZz86GagSMDBnOIN90AIQU3IqwJtKCdgaq+dbgC2nVl
c+4ufdisbrNDg6BCo/yJBdOnnwcUji5k5S6vl8ImmnncA0CIRu1rW1E1KaBlgkOp
rezdBg5ry8zh2sBON/J3idtqWg==
-----END CERTIFICATE-----
