Certificate:
    Data:
        Version: 3 (0x2)
        Serial Number:
            cd:74:18:c4:b4:d6:bf:34:89:e6:56:34:95:9f:c4:e6
        Signature Algorithm: sha256WithRSAEncryption
        Issuer: CN=CA
        Validity
            Not Before: Dec 11 07:57:20 2024 GMT
            Not After : Nov 26 07:57:20 2027 GMT
        Subject: CN=myserver
        Subject Public Key Info:
            Public Key Algorithm: rsaEncryption
                RSA Public-Key: (2048 bit)
                Modulus:
                    00:c2:92:e2:42:6c:ee:bd:d9:6a:fd:b4:52:65:7a:
                    11:16:eb:72:67:af:f5:56:a3:b6:49:8a:35:6e:ba:
                    1b:1d:e8:fd:da:68:26:27:72:f1:69:eb:5a:9f:e6:
                    ed:9c:76:bf:59:38:a9:f4:bc:e7:f6:50:33:2d:87:
                    35:4f:44:07:b9:6f:4a:7e:2a:ed:2f:fe:05:72:8b:
                    55:0f:00:dc:a8:f6:f0:0a:72:44:89:e0:49:e6:11:
                    b9:5a:ee:77:f2:b3:42:33:dc:63:6a:7d:68:af:c9:
                    0b:a2:01:a1:2b:6d:c7:8d:33:2b:63:1b:b0:77:64:
                    4d:71:3e:ac:52:d0:fd:1d:f3:8e:c3:4c:84:a9:80:
                    b1:df:be:5b:2c:1f:8b:cd:23:95:6b:62:02:bd:ff:
                    08:23:44:03:50:70:13:97:f4:a4:68:90:15:d8:e3:
                    6a:59:91:50:52:a1:9d:35:50:2f:9a:33:27:e3:6d:
                    c9:5d:e3:f8:ff:2a:9f:93:5d:ff:da:9f:4f:9c:11:
                    74:38:54:c5:56:0d:1d:3f:7f:31:6b:d7:9d:a1:eb:
                    ba:18:55:7e:83:aa:c5:47:c4:e0:38:da:08:3b:47:
                    89:26:4a:ec:c9:1e:12:2e:61:66:74:22:b3:cc:9b:
                    73:ba:7b:14:9b:2e:3d:4a:c8:a4:74:1c:ff:66:0b:
                    92:bf
                Exponent: 65537 (0x10001)
        X509v3 extensions:
            X509v3 Basic Constraints: 
                CA:FALSE
            X509v3 Subject Key Identifier: 
                DA:D9:DF:52:47:90:02:B6:44:FB:0D:E9:20:2A:B3:CB:3A:3A:D3:31
            X509v3 Authority Key Identifier: 
                keyid:6A:50:9E:8A:A5:D9:B7:09:EF:3D:B5:2D:3D:24:7D:FB:65:21:2F:49
                DirName:/CN=CA
                serial:0F:53:BC:5D:BD:20:28:E9:32:8C:13:3B:5C:75:10:77:92:75:18:E0

            X509v3 Extended Key Usage: 
                TLS Web Server Authentication
            X509v3 Key Usage: 
                Digital Signature, Key Encipherment
            X509v3 Subject Alternative Name: 
                DNS:myserver
    Signature Algorithm: sha256WithRSAEncryption
         39:2b:da:19:37:5e:65:d8:db:34:00:3e:f6:b6:89:19:f7:d0:
         14:79:cc:3a:6a:66:54:34:42:62:b8:b4:71:73:5b:bf:aa:3f:
         90:a7:3c:27:ce:d4:0e:5d:18:d8:59:e4:3a:56:fc:70:41:8a:
         f3:c4:00:8e:75:be:03:4f:f0:67:15:23:85:9a:7d:fb:25:2a:
         2f:f6:86:f4:6d:2c:cf:e6:3a:0c:57:6c:a3:c5:3a:b8:7d:f1:
         c0:f6:7b:5e:a5:f7:4f:18:65:2c:a7:70:78:68:9d:07:f3:29:
         85:27:f4:5b:da:46:07:12:f6:12:ee:12:74:87:fb:90:dd:9d:
         8b:94:4c:69:8f:88:5e:8b:43:32:bb:54:83:48:c0:13:c5:bb:
         91:75:fa:c0:94:ba:ac:f6:99:7b:a5:2d:23:c2:3e:76:15:e6:
         d1:80:f6:a0:4f:f2:37:a4:42:b0:c6:d7:7b:9d:6c:9a:28:f6:
         a7:38:cd:6b:49:63:72:b5:21:0d:76:df:8e:b6:ba:5a:2b:3e:
         bc:cd:98:95:8a:ad:83:5a:ee:b4:34:cd:33:84:1b:f8:af:63:
         33:55:ec:90:08:b7:f5:2e:9b:47:07:26:33:d0:cf:a9:a2:2e:
         3a:5b:52:0c:ff:58:28:8b:69:4c:fd:63:be:a2:25:23:37:d5:
         d0:18:5b:4c
-----BEGIN CERTIFICATE-----
MIIDWjCCAkKgAwIBAgIRAM10GMS01r80ieZWNJWfxOYwDQYJKoZIhvcNAQELBQAw
DTELMAkGA1UEAwwCQ0EwHhcNMjQxMjExMDc1NzIwWhcNMjcxMTI2MDc1NzIwWjAT
MREwDwYDVQQDDAhteXNlcnZlcjCCASIwDQYJKoZIhvcNAQEBBQADggEPADCCAQoC
ggEBAMKS4kJs7r3Zav20UmV6ERbrcmev9VajtkmKNW66Gx3o/dpoJidy8WnrWp/m
7Zx2v1k4qfS85/ZQMy2HNU9EB7lvSn4q7S/+BXKLVQ8A3Kj28ApyRIngSeYRuVru
d/KzQjPcY2p9aK/JC6IBoSttx40zK2MbsHdkTXE+rFLQ/R3zjsNMhKmAsd++Wywf
i80jlWtiAr3/CCNEA1BwE5f0pGiQFdjjalmRUFKhnTVQL5ozJ+NtyV3j+P8qn5Nd
/9qfT5wRdDhUxVYNHT9/MWvXnaHruhhVfoOqxUfE4DjaCDtHiSZK7MkeEi5hZnQi
s8ybc7p7FJsuPUrIpHQc/2YLkr8CAwEAAaOBrjCBqzAJBgNVHRMEAjAAMB0GA1Ud
DgQWBBTa2d9SR5ACtkT7DekgKrPLOjrTMTBIBgNVHSMEQTA/gBRqUJ6Kpdm3Ce89
tS09JH37ZSEvSaERpA8wDTELMAkGA1UEAwwCQ0GCFA9TvF29ICjpMowTO1x1EHeS
dRjgMBMGA1UdJQQMMAoGCCsGAQUFBwMBMAsGA1UdDwQEAwIFoDATBgNVHREEDDAK
gghteXNlcnZlcjANBgkqhkiG9w0BAQsFAAOCAQEAOSvaGTdeZdjbNAA+9raJGffQ
FHnMOmpmVDRCYri0cXNbv6o/kKc8J87UDl0Y2FnkOlb8cEGK88QAjnW+A0/wZxUj
hZp9+yUqL/aG9G0sz+Y6DFdso8U6uH3xwPZ7XqX3TxhlLKdweGidB/MphSf0W9pG
BxL2Eu4SdIf7kN2di5RMaY+IXotDMrtUg0jAE8W7kXX6wJS6rPaZe6UtI8I+dhXm
0YD2oE/yN6RCsMbXe51smij2pzjNa0ljcrUhDXbfjra6Wis+vM2YlYqtg1rutDTN
M4Qb+K9jM1XskAi39S6bRwcmM9DPqaIuOltSDP9YKItpTP1jvqIlIzfV0BhbTA==
-----END CERTIFICATE-----
